; Function Attrs: mustprogress null_pointer_is_valid sspstrong uwtable
define void @_ZN14SequenceDialog15rtpPlayerRemoveEv(ptr noundef align 8 dereferenceable_or_null(305) %0) local_unnamed_addr #0 align 2 personality ptr @__gxx_personality_v0 {
  %2 = alloca ptr, align 8
  %3 = alloca %class.QList.89, align 8
  tail call void @llvm.experimental.noalias.scope.decl(metadata !55)
  call void @llvm.memset.p0.i64(ptr noundef nonnull align 8 dereferenceable(24) dereferenceable_or_null(24) %3, i8 0, i64 24, i1 false), !alias.scope !55
  %4 = getelementptr inbounds nuw i8, ptr %0, i64 272
  %5 = load ptr, ptr %4, align 8, !noalias !55
  %.not.i = icmp eq ptr %5, null
  br i1 %.not.i, label %_ZN14SequenceDialog17getSelectedRtpIdsEv.exit, label %6

6:                                                ; preds = %1
  %7 = getelementptr inbounds nuw i8, ptr %5, i64 124
  %8 = load i32, ptr %7, align 4, !noalias !55
  %9 = icmp eq i32 %8, 1
  br i1 %9, label %10, label %_ZN14SequenceDialog17getSelectedRtpIdsEv.exit

10:                                               ; preds = %6
  %11 = getelementptr inbounds nuw i8, ptr %5, i64 128
  %12 = load ptr, ptr %11, align 8, !noalias !55
  call void @llvm.lifetime.start.p0(i64 8, ptr nonnull %2), !noalias !55
  store ptr %12, ptr %2, align 8, !noalias !55
  invoke void @_ZN9QtPrivate12QPodArrayOpsIP13_rtpstream_idE7emplaceIJRS2_EEEvxDpOT_(ptr noundef nonnull align 8 dereferenceable_or_null(24) %3, i64 noundef 0, ptr noundef nonnull align 8 dereferenceable(8) %2)
          to label %_ZN5QListIP13_rtpstream_idElsES1_.exit.i unwind label %13

_ZN5QListIP13_rtpstream_idElsES1_.exit.i:         ; preds = %10
  call void @llvm.lifetime.end.p0(i64 8, ptr nonnull %2), !noalias !55
  br label %_ZN14SequenceDialog17getSelectedRtpIdsEv.exit

13:                                               ; preds = %10
  %14 = landingpad { ptr, i32 }
          cleanup
  %15 = load ptr, ptr %3, align 8
  %.not.i.i.i6 = icmp eq ptr %15, null
  br i1 %.not.i.i.i6, label %common.resume, label %_ZN17QArrayDataPointerIP13_rtpstream_idE5derefEv.exit.i.i7

_ZN17QArrayDataPointerIP13_rtpstream_idE5derefEv.exit.i.i7: ; preds = %13
  %16 = atomicrmw sub ptr %15, i32 1 seq_cst, align 4
  %.not.i.i8 = icmp eq i32 %16, 1
  br i1 %.not.i.i8, label %common.resume.sink.split, label %common.resume

common.resume.sink.split:                         ; preds = %_ZN17QArrayDataPointerIP13_rtpstream_idE5derefEv.exit.i.i7, %_ZN17QArrayDataPointerIP13_rtpstream_idE5derefEv.exit.i.i3
  %common.resume.op.ph = phi { ptr, i32 } [ %24, %_ZN17QArrayDataPointerIP13_rtpstream_idE5derefEv.exit.i.i3 ], [ %14, %_ZN17QArrayDataPointerIP13_rtpstream_idE5derefEv.exit.i.i7 ]
  %17 = load ptr, ptr %3, align 8
  call void @_ZN10QArrayData10deallocateEPS_xx(ptr noundef %17, i64 noundef 8, i64 noundef 8) #25
  br label %common.resume

common.resume:                                    ; preds = %common.resume.sink.split, %_ZN17QArrayDataPointerIP13_rtpstream_idE5derefEv.exit.i.i3, %23, %_ZN17QArrayDataPointerIP13_rtpstream_idE5derefEv.exit.i.i7, %13
  %common.resume.op = phi { ptr, i32 } [ %14, %13 ], [ %14, %_ZN17QArrayDataPointerIP13_rtpstream_idE5derefEv.exit.i.i7 ], [ %24, %23 ], [ %24, %_ZN17QArrayDataPointerIP13_rtpstream_idE5derefEv.exit.i.i3 ], [ %common.resume.op.ph, %common.resume.sink.split ]
  resume { ptr, i32 } %common.resume.op

_ZN14SequenceDialog17getSelectedRtpIdsEv.exit:    ; preds = %1, %6, %_ZN5QListIP13_rtpstream_idElsES1_.exit.i
  invoke void @_ZN14SequenceDialog31rtpPlayerDialogRemoveRtpStreamsE5QListIP13_rtpstream_idE(ptr noundef align 8 dereferenceable_or_null(305) %0, ptr noundef nonnull %3)
          to label %18 unwind label %23

18:                                               ; preds = %_ZN14SequenceDialog17getSelectedRtpIdsEv.exit
  %19 = load ptr, ptr %3, align 8
  %.not.i.i.i = icmp eq ptr %19, null
  br i1 %.not.i.i.i, label %_ZN5QListIP13_rtpstream_idED2Ev.exit, label %_ZN17QArrayDataPointerIP13_rtpstream_idE5derefEv.exit.i.i

_ZN17QArrayDataPointerIP13_rtpstream_idE5derefEv.exit.i.i: ; preds = %18
  %20 = atomicrmw sub ptr %19, i32 1 seq_cst, align 4
  %.not.i.i = icmp eq i32 %20, 1
  br i1 %.not.i.i, label %21, label %_ZN5QListIP13_rtpstream_idED2Ev.exit

21:                                               ; preds = %_ZN17QArrayDataPointerIP13_rtpstream_idE5derefEv.exit.i.i
  %22 = load ptr, ptr %3, align 8
  call void @_ZN10QArrayData10deallocateEPS_xx(ptr noundef %22, i64 noundef 8, i64 noundef 8) #25
  br label %_ZN5QListIP13_rtpstream_idED2Ev.exit

_ZN5QListIP13_rtpstream_idED2Ev.exit:             ; preds = %18, %_ZN17QArrayDataPointerIP13_rtpstream_idE5derefEv.exit.i.i, %21
  ret void

23:                                               ; preds = %_ZN14SequenceDialog17getSelectedRtpIdsEv.exit
  %24 = landingpad { ptr, i32 }
          cleanup
  %25 = load ptr, ptr %3, align 8
  %.not.i.i.i2 = icmp eq ptr %25, null
  br i1 %.not.i.i.i2, label %common.resume, label %_ZN17QArrayDataPointerIP13_rtpstream_idE5derefEv.exit.i.i3

_ZN17QArrayDataPointerIP13_rtpstream_idE5derefEv.exit.i.i3: ; preds = %23
  %26 = atomicrmw sub ptr %25, i32 1 seq_cst, align 4
  %.not.i.i4 = icmp eq i32 %26, 1
  br i1 %.not.i.i4, label %common.resume.sink.split, label %common.resume
}